target datalayout = "e-m:e-p270:32:32-p271:32:32-p272:64:64-i64:64-i128:128-f80:128-n8:16:32:64-S128"
target triple = "x86_64-pc-linux-gnu"

%struct.H5G_loc_t = type { ptr, ptr }

@.str = private unnamed_addr constant [106 x i8] c"generated/home/dtcxzyw/WorkSpace/Projects/compilers/llvm-opt-benchmark/bench/hdf5/hdf5/src/H5Oattribute.c\00", align 1
@H5E_ATTR_g = external global i64, align 8
@H5E_BADITER_g = external global i64, align 8
@H5E_ARGS_g = external global i64, align 8
@.str.37 = private unnamed_addr constant [32 x i8] c"error iterating over attributes\00", align 1
@__func__.H5O__attr_iterate = private unnamed_addr constant [18 x i8] c"H5O__attr_iterate\00", align 1
@H5E_BADTYPE_g = external global i64, align 8
@.str.41 = private unnamed_addr constant [15 x i8] c"not a location\00", align 1

; Function Attrs: nounwind uwtable
define i32 @H5O__attr_iterate(i64 noundef %0, i32 noundef %1, i32 noundef %2, i64 noundef %3, ptr noundef %4, ptr noundef %5, ptr noundef %6) #0 {
  %8 = alloca i64, align 8
  %9 = alloca i32, align 4
  %10 = alloca i32, align 4
  %11 = alloca i64, align 8
  %12 = alloca ptr, align 8
  %13 = alloca ptr, align 8
  %14 = alloca ptr, align 8
  %15 = alloca %struct.H5G_loc_t, align 8
  %16 = alloca i32, align 4
  %17 = alloca i8, align 1
  store i64 %0, ptr %8, align 8
  store i32 %1, ptr %9, align 4
  store i32 %2, ptr %10, align 4
  store i64 %3, ptr %11, align 8
  store ptr %4, ptr %12, align 8
  store ptr %5, ptr %13, align 8
  store ptr %6, ptr %14, align 8
  store i32 -1, ptr %16, align 4
  store i8 0, ptr %17, align 1
  %18 = load i64, ptr %8, align 8
  %19 = call i32 @H5G_loc(i64 noundef %18, ptr noundef %15)
  %20 = icmp slt i32 %19, 0
  br i1 %20, label %21, label %36

21:                                               ; preds = %7
  br label %22

22:                                               ; preds = %21
  br label %23

23:                                               ; preds = %22
  br label %24

24:                                               ; preds = %23
  %25 = load i64, ptr @H5E_ARGS_g, align 8
  %26 = load i64, ptr @H5E_BADTYPE_g, align 8
  %27 = call i32 (ptr, ptr, i32, i64, i64, ptr, ...) @H5E_printf_stack(ptr noundef @.str, ptr noundef @__func__.H5O__attr_iterate, i32 noundef 1274, i64 noundef %25, i64 noundef %26, ptr noundef @.str.41)
  br label %28

28:                                               ; preds = %24
  store i8 1, ptr %17, align 1
  %29 = load i8, ptr %17, align 1
  %30 = trunc i8 %29 to i1
  %31 = zext i1 %30 to i8
  store i8 %31, ptr %17, align 1
  br label %32

32:                                               ; preds = %28
  br label %33

33:                                               ; preds = %32
  store i32 -1, ptr %16, align 4
  br label %55

34:                                               ; No predecessors!
  br label %35

35:                                               ; preds = %34
  br label %36

36:                                               ; preds = %35, %7
  %37 = load i64, ptr %8, align 8
  %38 = getelementptr inbounds %struct.H5G_loc_t, ptr %15, i32 0, i32 0
  %39 = load ptr, ptr %38, align 8
  %40 = load i32, ptr %9, align 4
  %41 = load i32, ptr %10, align 4
  %42 = load i64, ptr %11, align 8
  %43 = load ptr, ptr %12, align 8
  %44 = load ptr, ptr %13, align 8
  %45 = load ptr, ptr %14, align 8
  %46 = call i32 @H5O_attr_iterate_real(i64 noundef %37, ptr noundef %39, i32 noundef %40, i32 noundef %41, i64 noundef %42, ptr noundef %43, ptr noundef %44, ptr noundef %45)
  store i32 %46, ptr %16, align 4
  %47 = icmp slt i32 %46, 0
  br i1 %47, label %48, label %54

48:                                               ; preds = %36
  br label %49

49:                                               ; preds = %48
  %50 = load i64, ptr @H5E_ATTR_g, align 8
  %51 = load i64, ptr @H5E_BADITER_g, align 8
  %52 = call i32 (ptr, ptr, i32, i64, i64, ptr, ...) @H5E_printf_stack(ptr noundef @.str, ptr noundef @__func__.H5O__attr_iterate, i32 noundef 1279, i64 noundef %50, i64 noundef %51, ptr noundef @.str.37)
  br label %53

53:                                               ; preds = %49
  br label %54

54:                                               ; preds = %53, %36
  br label %55

55:                                               ; preds = %54, %33
  %56 = load i32, ptr %16, align 4
  ret i32 %56
}