; Function Attrs: nounwind uwtable
define i32 @H5O__attr_iterate(i64 noundef %0, i32 noundef %1, i32 noundef %2, i64 noundef %3, ptr noundef %4, ptr noundef %5, ptr noundef %6) local_unnamed_addr #0 {
  %8 = alloca %struct.H5G_loc_t, align 8
  %9 = call i32 @H5G_loc(i64 noundef %0, ptr noundef nonnull %8) #9
  %10 = icmp slt i32 %9, 0
  br i1 %10, label %11, label %15

11:                                               ; preds = %7
  %12 = load i64, ptr @H5E_ARGS_g, align 8
  %13 = load i64, ptr @H5E_BADTYPE_g, align 8
  %14 = call i32 (ptr, ptr, i32, i64, i64, ptr, ...) @H5E_printf_stack(ptr noundef nonnull @.str, ptr noundef nonnull @__func__.H5O__attr_iterate, i32 noundef 1274, i64 noundef %12, i64 noundef %13, ptr noundef nonnull @.str.41) #9
  br label %23

15:                                               ; preds = %7
  %16 = load ptr, ptr %8, align 8
  %17 = call i32 @H5O_attr_iterate_real(i64 noundef %0, ptr noundef %16, i32 noundef %1, i32 noundef %2, i64 noundef %3, ptr noundef %4, ptr noundef %5, ptr noundef %6)
  %18 = icmp slt i32 %17, 0
  br i1 %18, label %19, label %23

19:                                               ; preds = %15
  %20 = load i64, ptr @H5E_ATTR_g, align 8
  %21 = load i64, ptr @H5E_BADITER_g, align 8
  %22 = call i32 (ptr, ptr, i32, i64, i64, ptr, ...) @H5E_printf_stack(ptr noundef nonnull @.str, ptr noundef nonnull @__func__.H5O__attr_iterate, i32 noundef 1279, i64 noundef %20, i64 noundef %21, ptr noundef nonnull @.str.37) #9
  br label %23

23:                                               ; preds = %15, %19, %11
  %.0 = phi i32 [ -1, %11 ], [ %17, %19 ], [ %17, %15 ]
  ret i32 %.0
}